target datalayout = "e-m:e-p270:32:32-p271:32:32-p272:64:64-i64:64-i128:128-f80:128-n8:16:32:64-S128"
target triple = "x86_64-pc-linux-gnu"

%"class.duckdb_re2::Regexp" = type { i8, i8, i16, i16, i16, %union.anon, ptr, %union.anon.0 }
%union.anon = type { ptr }
%union.anon.0 = type { %struct.anon.1 }
%struct.anon.1 = type { i32, ptr }

; Function Attrs: mustprogress nounwind uwtable
define linkonce_odr hidden noundef zeroext i1 @_ZN10duckdb_re26Regexp6simpleEv(ptr noundef nonnull align 8 dereferenceable(40) %0) #3 comdat align 2 {
  %2 = alloca ptr, align 8
  store ptr %0, ptr %2, align 8, !tbaa !14
  %3 = load ptr, ptr %2, align 8
  %4 = getelementptr inbounds nuw %"class.duckdb_re2::Regexp", ptr %3, i32 0, i32 1
  %5 = load i8, ptr %4, align 1, !tbaa !37
  %6 = zext i8 %5 to i32
  %7 = icmp ne i32 %6, 0
  ret i1 %7
}

; Function Attrs: mustprogress uwtable
define hidden noundef ptr @_ZN10duckdb_re214SimplifyWalker8PreVisitEPNS_6RegexpES2_Pb(ptr noundef nonnull align 8 dereferenceable(96) %0, ptr noundef %1, ptr noundef %2, ptr noundef %3) unnamed_addr #0 align 2 {
  %5 = alloca ptr, align 8
  %6 = alloca ptr, align 8
  %7 = alloca ptr, align 8
  %8 = alloca ptr, align 8
  %9 = alloca ptr, align 8
  store ptr %0, ptr %6, align 8, !tbaa !91
  store ptr %1, ptr %7, align 8, !tbaa !14
  store ptr %2, ptr %8, align 8, !tbaa !14
  store ptr %3, ptr %9, align 8, !tbaa !104
  %10 = load ptr, ptr %7, align 8, !tbaa !14
  %11 = call noundef zeroext i1 @_ZN10duckdb_re26Regexp6simpleEv(ptr noundef nonnull align 8 dereferenceable(40) %10)
  br i1 %11, label %12, label %16

12:                                               ; preds = %4
  %13 = load ptr, ptr %9, align 8, !tbaa !104
  store i8 1, ptr %13, align 1, !tbaa !94
  %14 = load ptr, ptr %7, align 8, !tbaa !14
  %15 = call noundef ptr @_ZN10duckdb_re26Regexp6IncrefEv(ptr noundef nonnull align 8 dereferenceable(40) %14)
  store ptr %15, ptr %5, align 8
  br label %17

16:                                               ; preds = %4
  store ptr null, ptr %5, align 8
  br label %17

17:                                               ; preds = %16, %12
  %18 = load ptr, ptr %5, align 8
  ret ptr %18
}