; Function Attrs: mustprogress uwtable
define hidden noundef ptr @_ZN10duckdb_re214SimplifyWalker8PreVisitEPNS_6RegexpES2_Pb(ptr nonnull readnone align 8 captures(none) %0, ptr noundef %1, ptr readnone captures(none) %2, ptr noundef writeonly captures(none) %3) unnamed_addr #0 align 2 {
  %5 = getelementptr inbounds nuw i8, ptr %1, i64 1
  %6 = load i8, ptr %5, align 1, !tbaa !51
  %.not = icmp eq i8 %6, 0
  br i1 %.not, label %9, label %7

7:                                                ; preds = %4
  store i8 1, ptr %3, align 1, !tbaa !94
  %8 = tail call noundef ptr @_ZN10duckdb_re26Regexp6IncrefEv(ptr noundef nonnull align 8 dereferenceable(40) %1)
  br label %9

9:                                                ; preds = %4, %7
  %.0 = phi ptr [ %8, %7 ], [ null, %4 ]
  ret ptr %.0
}